target datalayout = "e-m:e-p270:32:32-p271:32:32-p272:64:64-i64:64-i128:128-f80:128-n8:16:32:64-S128"
target triple = "x86_64-pc-linux-gnu"

%struct.expert_field = type { i32, i32 }

@ei_ppp_opt_len_invalid = internal global %struct.expert_field zeroinitializer, align 4
@hf_cbcp_opt_type = internal global i32 0, align 4
@hf_cbcp_opt_length = internal global i32 0, align 4
@ett_cbcp_callback_user = internal global i32 0, align 4
@proto_cbcp_option_callback_user = internal global i32 0, align 4
@.str.1006 = private unnamed_addr constant [1 x i8] zeroinitializer, align 1
@.str.1007 = private unnamed_addr constant [2 x i8] c"s\00", align 1
@.str.1295 = private unnamed_addr constant [8 x i8] c"%s (%u)\00", align 1
@.str.1316 = private unnamed_addr constant [59 x i8] c"%s (with option length = %u byte%s; should be at least %u)\00", align 1

; Function Attrs: null_pointer_is_valid sspstrong uwtable
define internal void @dissect_cbcp_opt_type_len(ptr noundef %0, i32 noundef %1, ptr noundef %2, ptr noundef %3) #1 {
  %5 = alloca ptr, align 8
  %6 = alloca i32, align 4
  %7 = alloca ptr, align 8
  %8 = alloca ptr, align 8
  %9 = alloca i8, align 1
  store ptr %0, ptr %5, align 8
  store i32 %1, ptr %6, align 4
  store ptr %2, ptr %7, align 8
  store ptr %3, ptr %8, align 8
  call void @llvm.lifetime.start.p0(i64 1, ptr %9) #6
  %10 = load ptr, ptr %5, align 8
  %11 = load i32, ptr %6, align 4
  %12 = call zeroext i8 @tvb_get_uint8(ptr noundef %10, i32 noundef %11)
  store i8 %12, ptr %9, align 1
  %13 = load ptr, ptr %7, align 8
  %14 = load i32, ptr @hf_cbcp_opt_type, align 4
  %15 = load ptr, ptr %5, align 8
  %16 = load i32, ptr %6, align 4
  %17 = load i8, ptr %9, align 1
  %18 = zext i8 %17 to i32
  %19 = load ptr, ptr %8, align 8
  %20 = load i8, ptr %9, align 1
  %21 = zext i8 %20 to i32
  %22 = call ptr (ptr, i32, ptr, i32, i32, i32, ptr, ...) @proto_tree_add_uint_format_value(ptr noundef %13, i32 noundef %14, ptr noundef %15, i32 noundef %16, i32 noundef 1, i32 noundef %18, ptr noundef @.str.1295, ptr noundef %19, i32 noundef %21)
  %23 = load ptr, ptr %7, align 8
  %24 = load i32, ptr @hf_cbcp_opt_length, align 4
  %25 = load ptr, ptr %5, align 8
  %26 = load i32, ptr %6, align 4
  %27 = add i32 %26, 1
  %28 = call ptr @proto_tree_add_item(ptr noundef %23, i32 noundef %24, ptr noundef %25, i32 noundef %27, i32 noundef 1, i32 noundef 0)
  call void @llvm.lifetime.end.p0(i64 1, ptr %9) #6
  ret void
}

; Function Attrs: null_pointer_is_valid sspstrong uwtable
define internal i32 @dissect_cbcp_callback_user_opt(ptr noundef %0, ptr noundef %1, ptr noundef %2, ptr noundef %3) #1 {
  %5 = alloca i32, align 4
  %6 = alloca ptr, align 8
  %7 = alloca ptr, align 8
  %8 = alloca ptr, align 8
  %9 = alloca ptr, align 8
  %10 = alloca ptr, align 8
  %11 = alloca ptr, align 8
  %12 = alloca i32, align 4
  %13 = alloca i32, align 4
  %14 = alloca i32, align 4
  store ptr %0, ptr %6, align 8
  store ptr %1, ptr %7, align 8
  store ptr %2, ptr %8, align 8
  store ptr %3, ptr %9, align 8
  call void @llvm.lifetime.start.p0(i64 8, ptr %10) #6
  call void @llvm.lifetime.start.p0(i64 8, ptr %11) #6
  call void @llvm.lifetime.start.p0(i64 4, ptr %12) #6
  store i32 0, ptr %12, align 4
  call void @llvm.lifetime.start.p0(i64 4, ptr %13) #6
  %15 = load ptr, ptr %6, align 8
  %16 = call i32 @tvb_reported_length(ptr noundef %15)
  store i32 %16, ptr %13, align 4
  %17 = load i32, ptr %13, align 4
  %18 = icmp slt i32 %17, 4
  br i1 %18, label %19, label %34

19:                                               ; preds = %4
  %20 = load ptr, ptr %8, align 8
  %21 = load ptr, ptr %7, align 8
  %22 = load ptr, ptr %6, align 8
  %23 = load i32, ptr %13, align 4
  %24 = load i32, ptr @proto_cbcp_option_callback_user, align 4
  %25 = call ptr @find_protocol_by_id(i32 noundef %24)
  %26 = call ptr @proto_get_protocol_short_name(ptr noundef %25)
  %27 = load i32, ptr %13, align 4
  %28 = load i32, ptr %13, align 4
  %29 = icmp eq i32 %28, 1
  %30 = select i1 %29, ptr @.str.1006, ptr @.str.1007
  %31 = call ptr (ptr, ptr, ptr, ptr, i32, i32, ptr, ...) @proto_tree_add_expert_format(ptr noundef %20, ptr noundef %21, ptr noundef @ei_ppp_opt_len_invalid, ptr noundef %22, i32 noundef 0, i32 noundef %23, ptr noundef @.str.1316, ptr noundef %26, i32 noundef %27, ptr noundef %30, i32 noundef 4)
  %32 = load ptr, ptr %6, align 8
  %33 = call i32 @tvb_captured_length(ptr noundef %32)
  store i32 %33, ptr %5, align 4
  store i32 1, ptr %14, align 4
  br label %55

34:                                               ; preds = %4
  %35 = load ptr, ptr %8, align 8
  %36 = load i32, ptr @proto_cbcp_option_callback_user, align 4
  %37 = load ptr, ptr %6, align 8
  %38 = load i32, ptr %12, align 4
  %39 = load i32, ptr %13, align 4
  %40 = call ptr @proto_tree_add_item(ptr noundef %35, i32 noundef %36, ptr noundef %37, i32 noundef %38, i32 noundef %39, i32 noundef 0)
  store ptr %40, ptr %11, align 8
  %41 = load ptr, ptr %11, align 8
  %42 = load i32, ptr @ett_cbcp_callback_user, align 4
  %43 = call ptr @proto_item_add_subtree(ptr noundef %41, i32 noundef %42)
  store ptr %43, ptr %10, align 8
  %44 = load ptr, ptr %6, align 8
  %45 = load i32, ptr %12, align 4
  %46 = load ptr, ptr %10, align 8
  %47 = load i32, ptr @proto_cbcp_option_callback_user, align 4
  %48 = call ptr @proto_registrar_get_name(i32 noundef %47)
  call void @dissect_cbcp_opt_type_len(ptr noundef %44, i32 noundef %45, ptr noundef %46, ptr noundef %48)
  %49 = load ptr, ptr %6, align 8
  %50 = load ptr, ptr %7, align 8
  %51 = load ptr, ptr %8, align 8
  %52 = load ptr, ptr %6, align 8
  %53 = call i32 @tvb_reported_length(ptr noundef %52)
  %54 = call i32 @dissect_cbcp_callback_opt_common(ptr noundef %49, ptr noundef %50, ptr noundef %51, i32 noundef 0, i32 noundef %53)
  store i32 %54, ptr %5, align 4
  store i32 1, ptr %14, align 4
  br label %55

55:                                               ; preds = %34, %19
  call void @llvm.lifetime.end.p0(i64 4, ptr %13) #6
  call void @llvm.lifetime.end.p0(i64 4, ptr %12) #6
  call void @llvm.lifetime.end.p0(i64 8, ptr %11) #6
  call void @llvm.lifetime.end.p0(i64 8, ptr %10) #6
  %56 = load i32, ptr %5, align 4
  ret i32 %56
}